(dp0
S'left_arm'
p1
(lp2
(dp3
S'y'
p4
F87.399999999999977
sS'x'
p5
F83.799999999999955
sS'z'
p6
F88.699999999999932
sa(dp7
g4
F517.79999999999995
sg5
F508.60000000000002
sg6
F547.60000000000002
sasS'left_leg'
p8
(lp9
(dp10
g4
F88.700000000000045
sg5
F86.5
sg6
F91.5
sa(dp11
g4
F510.89999999999998
sg5
F507.0
sg6
F567.20000000000005
sasS'right_arm'
p12
(lp13
(dp14
g4
F89.899999999999977
sg5
F87.0
sg6
F87.200000000000045
sa(dp15
g4
F512.70000000000005
sg5
F513.60000000000002
sg6
F577.39999999999998
sasS'right_leg'
p16
(lp17
(dp18
g4
F92.200000000000045
sg5
F86.299999999999955
sg6
F89.700000000000045
sa(dp19
g4
F520.89999999999998
sg5
F535.20000000000005
sg6
F569.0
sas.