(dp0
S'left_arm'
p1
(lp2
(dp3
S'y'
p4
F89.0
sS'x'
p5
F82.0
sS'z'
p6
F90.399999999999977
sa(dp7
g4
F518.0
sg5
F509.0
sg6
F546.70000000000005
sasS'left_leg'
p8
(lp9
(dp10
g4
F88.400000000000034
sg5
F86.600000000000023
sg6
F91.200000000000045
sa(dp11
g4
F510.5
sg5
F506.39999999999998
sg6
F566.89999999999998
sasS'right_arm'
p12
(lp13
(dp14
g4
F89.100000000000023
sg5
F88.299999999999955
sg6
F86.399999999999977
sa(dp15
g4
F511.80000000000001
sg5
F512.0
sg6
F576.60000000000002
sasS'right_leg'
p16
(lp17
(dp18
g4
F90.899999999999977
sg5
F86.399999999999977
sg6
F88.800000000000068
sa(dp19
g4
F520.39999999999998
sg5
F534.70000000000005
sg6
F568.89999999999998
sas.